******************************************************************************
       MSP430 Evaluation Linker PC v3.3.1                      
******************************************************************************
>> Linked Wed Feb 09 23:46:18 2011

OUTPUT FILE NAME:   <RTOSDemoMSP430F2274.out>
ENTRY POINT SYMBOL: "_c_int00"  address: 00008c0c


MEMORY CONFIGURATION

         name            origin    length      used     unused   attr    fill
----------------------  --------  ---------  --------  --------  ----  --------
  SFR                   00000000   00000010  00000000  00000010  RWIX
  PERIPHERALS_8BIT      00000010   000000f0  00000000  000000f0  RWIX
  PERIPHERALS_16BIT     00000100   00000100  00000000  00000100  RWIX
  RAM                   00000200   00000400  000003d4  0000002c  RWIX
  INFOD                 00001000   00000040  00000000  00000040  RWIX
  INFOC                 00001040   00000040  00000000  00000040  RWIX
  INFOB                 00001080   00000040  00000000  00000040  RWIX
  INFOA                 000010c0   00000040  00000000  00000040  RWIX
  FLASH                 00008000   00007fde  00000e32  000071ac  RWIX
  INT00                 0000ffe0   00000002  00000000  00000002  RWIX
  INT01                 0000ffe2   00000002  00000000  00000002  RWIX
  INT02                 0000ffe4   00000002  00000000  00000002  RWIX
  INT03                 0000ffe6   00000002  00000000  00000002  RWIX
  INT04                 0000ffe8   00000002  00000000  00000002  RWIX
  INT05                 0000ffea   00000002  00000000  00000002  RWIX
  INT06                 0000ffec   00000002  00000000  00000002  RWIX
  INT07                 0000ffee   00000002  00000000  00000002  RWIX
  INT08                 0000fff0   00000002  00000000  00000002  RWIX
  INT09                 0000fff2   00000002  00000002  00000000  RWIX
  INT10                 0000fff4   00000002  00000000  00000002  RWIX
  INT11                 0000fff6   00000002  00000000  00000002  RWIX
  INT12                 0000fff8   00000002  00000000  00000002  RWIX
  INT13                 0000fffa   00000002  00000000  00000002  RWIX
  INT14                 0000fffc   00000002  00000000  00000002  RWIX
  RESET                 0000fffe   00000002  00000002  00000000  RWIX


SECTION ALLOCATION MAP

 output                                  attributes/
section   page    origin      length       input sections
--------  ----  ----------  ----------   ----------------
.pinit     0    00008000    00000000     UNINITIALIZED

.bss       0    00000200    00000384     UNINITIALIZED
                  00000200    000002be     heap_1.obj (.bss)
                  000004be    0000006c     tasks.obj (.bss)
                  0000052a    00000040     croutine.obj (.bss)
                  0000056a    00000006     PollQ.obj (.bss)
                  00000570    00000006     main.obj (.bss)
                  00000576    00000004     rts430.lib : _lock.obj (.bss)
                  0000057a    00000004                : boot.obj (.bss)
                  0000057e    00000002     flash.obj (.bss)
                  00000580    00000002     integer.obj (.bss)
                  00000582    00000002     port.obj (.bss)

.stack     0    000005b0    00000050     UNINITIALIZED
                  000005b0    00000002     rts430.lib : boot.obj (.stack)
                  000005b2    0000004e     --HOLE--

.text      0    00008000    00000d74     
                  00008000    0000013e     portext.obj (.text)
                  0000813e    00000138     tasks.obj (.text:xTaskGenericCreate)
                  00008276    000000d0     tasks.obj (.text:xTaskResumeAll)
                  00008346    000000c0     port.obj (.text:pxPortInitialiseStack)
                  00008406    000000ae     tasks.obj (.text:vTaskDelayUntil)
                  000084b4    0000009a     tasks.obj (.text:vTaskIncrementTick)
                  0000854e    00000082     list.obj (.text:vListInsert)
                  000085d0    00000078     flash.obj (.text:vLEDFlashTask)
                  00008648    0000006e     tasks.obj (.text:prvCheckTasksWaitingTermination)
                  000086b6    0000006a     tasks.obj (.text:prvInitialiseTCBVariables)
                  00008720    0000006a     main.obj (.text:vApplicationIdleHook)
                  0000878a    00000068     tasks.obj (.text:prvAllocateTCBAndStack)
                  000087f2    00000068     tasks.obj (.text:vTaskSwitchContext)
                  0000885a    00000060     list.obj (.text:vListInsertEnd)
                  000088ba    00000058     tasks.obj (.text:prvInitialiseTaskLists)
                  00008912    00000058     rts430.lib : div32u.obj (.text)
                  0000896a    00000056     heap_1.obj (.text:pvPortMalloc)
                  000089c0    0000004e     ParTest.obj (.text:vParTestToggleLED)
                  00008a0e    0000004a     flash.obj (.text:vStartLEDFlashTasks)
                  00008a58    0000004a     tasks.obj (.text:vTaskStartScheduler)
                  00008aa2    00000048     list.obj (.text:vListRemove)
                  00008aea    00000046     rts430.lib : autoinit.obj (.text:_auto_init)
                  00008b30    00000040                : div32s.obj (.text)
                  00008b70    00000038                : strncpy.obj (.text:strncpy)
                  00008ba8    00000032     list.obj (.text:vListInitialise)
                  00008bda    00000032     port.obj (.text:vPortSetupTimerInterrupt)
                  00008c0c    00000026     rts430.lib : boot.obj (.text:_c_int00_noexit)
                  00008c32    00000026                : mult32.obj (.text)
                  00008c58    00000024     tasks.obj (.text:xTaskGetTickCount)
                  00008c7c    0000001c     port.obj (.text:vTickISREntry)
                  00008c98    0000001a     tasks.obj (.text:prvIdleTask)
                  00008cb2    00000018     tasks.obj (.text:prvDeleteTCB)
                  00008cca    00000016     main.obj (.text:main)
                  00008ce0    00000014     rts430.lib : memset.obj (.text:memset)
                  00008cf4    00000014     main.obj (.text:prvSetupHardware)
                  00008d08    00000014     rts430.lib : mult16.obj (.text)
                  00008d1c    00000012                : memcpy.obj (.text:memcpy)
                  00008d2e    00000010                : epilog.obj (.text)
                  00008d3e    0000000e     list.obj (.text:vListInitialiseItem)
                  00008d4c    0000000e     ParTest.obj (.text:vParTestInitialise)
                  00008d5a    0000000a     heap_1.obj (.text:vPortFree)
                  00008d64    00000006     tasks.obj (.text:vTaskSuspendAll)
                  00008d6a    00000004     rts430.lib : pre_init.obj (.text:_system_pre_init)
                  00008d6e    00000004                : exit.obj (.text:abort)
                  00008d72    00000002                : _lock.obj (.text:_nop)

.cinit     0    00008d74    0000009a     
                  00008d74    00000048     tasks.obj (.cinit)
                  00008dbc    0000001e     croutine.obj (.cinit)
                  00008dda    0000000e     main.obj (.cinit)
                  00008de8    0000000c     PollQ.obj (.cinit)
                  00008df4    00000006     flash.obj (.cinit)
                  00008dfa    00000006     heap_1.obj (.cinit)
                  00008e00    00000006     integer.obj (.cinit)
                  00008e06    00000006     port.obj (.cinit)
                  00008e0c    00000002     --HOLE-- [fill = 0]

.const     0    00008e0e    00000024     
                  00008e0e    00000010     PollQ.obj (.const:.string)
                  00008e1e    00000008     integer.obj (.const:.string)
                  00008e26    00000006     flash.obj (.const:.string)
                  00008e2c    00000006     tasks.obj (.const:.string)

.int09     0    0000fff2    00000002     
                  0000fff2    00000002     port.obj (.int09)

.reset     0    0000fffe    00000002     
                  0000fffe    00000002     rts430.lib : boot.obj (.reset)


GLOBAL SYMBOLS: SORTED ALPHABETICALLY BY Name 

address    name
--------   ----
00000200   .bss
00008000   .text
0000004a   ADC10AE0
0000004b   ADC10AE1
000001b0   ADC10CTL0
000001b2   ADC10CTL1
00000048   ADC10DTC0
00000049   ADC10DTC1
000001b4   ADC10MEM
000001bc   ADC10SA
00000057   BCSCTL1
00000058   BCSCTL2
00000053   BCSCTL3
00008d6e   C$$EXIT
000010fb   CALBC1_12MHZ
000010f9   CALBC1_16MHZ
000010ff   CALBC1_1MHZ
000010fd   CALBC1_8MHZ
000010fa   CALDCO_12MHZ
000010f8   CALDCO_16MHZ
000010fe   CALDCO_1MHZ
000010fc   CALDCO_8MHZ
00000056   DCOCTL
00000128   FCTL1
0000012a   FCTL2
0000012c   FCTL3
00000000   IE1
00000001   IE2
00000002   IFG1
00000003   IFG2
000000c0   OA0CTL0
000000c1   OA0CTL1
000000c2   OA1CTL0
000000c3   OA1CTL1
00000022   P1DIR
00000025   P1IE
00000024   P1IES
00000023   P1IFG
00000020   P1IN
00000021   P1OUT
00000027   P1REN
00000026   P1SEL
0000002a   P2DIR
0000002d   P2IE
0000002c   P2IES
0000002b   P2IFG
00000028   P2IN
00000029   P2OUT
0000002f   P2REN
0000002e   P2SEL
0000001a   P3DIR
00000018   P3IN
00000019   P3OUT
00000010   P3REN
0000001b   P3SEL
0000001e   P4DIR
0000001c   P4IN
0000001d   P4OUT
00000011   P4REN
0000001f   P4SEL
00000172   TACCR0
00000174   TACCR1
00000176   TACCR2
00000162   TACCTL0
00000164   TACCTL1
00000166   TACCTL2
00000160   TACTL
0000012e   TAIV
00000170   TAR
00000192   TBCCR0
00000194   TBCCR1
00000196   TBCCR2
00000182   TBCCTL0
00000184   TBCCTL1
00000186   TBCCTL2
00000180   TBCTL
0000011e   TBIV
00000190   TBR
0000005d   UCA0ABCTL
00000062   UCA0BR0
00000063   UCA0BR1
00000060   UCA0CTL0
00000061   UCA0CTL1
0000005f   UCA0IRRCTL
0000005e   UCA0IRTCTL
00000064   UCA0MCTL
00000066   UCA0RXBUF
00000065   UCA0STAT
00000067   UCA0TXBUF
0000006a   UCB0BR0
0000006b   UCB0BR1
00000068   UCB0CTL0
00000069   UCB0CTL1
0000006c   UCB0I2CIE
00000118   UCB0I2COA
0000011a   UCB0I2CSA
0000006e   UCB0RXBUF
0000006d   UCB0STAT
0000006f   UCB0TXBUF
00000120   WDTCTL
00000600   __STACK_END
00000050   __STACK_SIZE
00000001   __TI_args_main
00000001   __TI_auto_init
00000001   __TI_exit
ffffffff   __binit__
00000200   __bss__
ffffffff   __c_args__
00008d74   __cinit__
00008b30   __divli
00008912   __divul
00000584   __end__
00008d74   __etext__
00008d08   __mpyi
00008c32   __mpyl
ffffffff   __pinit__
00008b30   __remli
00008912   __remul
00008000   __text__
00008aea   _auto_init
00008c0c   _c_int00
00008c0c   _c_int00_noexit
0000057a   _cleanup_ptr
0000057c   _dtors_ptr
00000576   _lock
00008d72   _nop
0000fffe   _reset_vector
000005b0   _stack
00008d6a   _system_pre_init
00000578   _unlock
00008d6e   abort
ffffffff   binit
00008d74   cinit
00000584   end
00008d74   etext
00008d3a   func_epilog_1
00008d38   func_epilog_2
00008d36   func_epilog_3
00008d34   func_epilog_4
00008d32   func_epilog_5
00008d30   func_epilog_6
00008d2e   func_epilog_7
00008cca   main
00008d1c   memcpy
00008ce0   memset
ffffffff   pinit
0000896a   pvPortMalloc
00000560   pxCurrentCoRoutine
000004be   pxCurrentTCB
00008346   pxPortInitialiseStack
00008b70   strncpy
00000572   ulIdleLoops
00000582   usCriticalNesting
00008720   vApplicationIdleHook
00008ba8   vListInitialise
00008d3e   vListInitialiseItem
0000854e   vListInsert
0000885a   vListInsertEnd
00008aa2   vListRemove
00008d4c   vParTestInitialise
000089c0   vParTestToggleLED
0000805c   vPortCooperativeTickISR
00008d5a   vPortFree
00008000   vPortPreemptiveTickISR
00008bda   vPortSetupTimerInterrupt
000080b4   vPortYield
00008a0e   vStartLEDFlashTasks
00008406   vTaskDelayUntil
000084b4   vTaskIncrementTick
00008a58   vTaskStartScheduler
00008d64   vTaskSuspendAll
000087f2   vTaskSwitchContext
00008c7c   vTickISREntry
00000570   xLocalError
0000810e   xPortStartScheduler
0000813e   xTaskGenericCreate
00008c58   xTaskGetTickCount
00008276   xTaskResumeAll


GLOBAL SYMBOLS: SORTED BY Symbol Address 

address    name
--------   ----
00000000   IE1
00000001   IE2
00000001   __TI_args_main
00000001   __TI_auto_init
00000001   __TI_exit
00000002   IFG1
00000003   IFG2
00000010   P3REN
00000011   P4REN
00000018   P3IN
00000019   P3OUT
0000001a   P3DIR
0000001b   P3SEL
0000001c   P4IN
0000001d   P4OUT
0000001e   P4DIR
0000001f   P4SEL
00000020   P1IN
00000021   P1OUT
00000022   P1DIR
00000023   P1IFG
00000024   P1IES
00000025   P1IE
00000026   P1SEL
00000027   P1REN
00000028   P2IN
00000029   P2OUT
0000002a   P2DIR
0000002b   P2IFG
0000002c   P2IES
0000002d   P2IE
0000002e   P2SEL
0000002f   P2REN
00000048   ADC10DTC0
00000049   ADC10DTC1
0000004a   ADC10AE0
0000004b   ADC10AE1
00000050   __STACK_SIZE
00000053   BCSCTL3
00000056   DCOCTL
00000057   BCSCTL1
00000058   BCSCTL2
0000005d   UCA0ABCTL
0000005e   UCA0IRTCTL
0000005f   UCA0IRRCTL
00000060   UCA0CTL0
00000061   UCA0CTL1
00000062   UCA0BR0
00000063   UCA0BR1
00000064   UCA0MCTL
00000065   UCA0STAT
00000066   UCA0RXBUF
00000067   UCA0TXBUF
00000068   UCB0CTL0
00000069   UCB0CTL1
0000006a   UCB0BR0
0000006b   UCB0BR1
0000006c   UCB0I2CIE
0000006d   UCB0STAT
0000006e   UCB0RXBUF
0000006f   UCB0TXBUF
000000c0   OA0CTL0
000000c1   OA0CTL1
000000c2   OA1CTL0
000000c3   OA1CTL1
00000118   UCB0I2COA
0000011a   UCB0I2CSA
0000011e   TBIV
00000120   WDTCTL
00000128   FCTL1
0000012a   FCTL2
0000012c   FCTL3
0000012e   TAIV
00000160   TACTL
00000162   TACCTL0
00000164   TACCTL1
00000166   TACCTL2
00000170   TAR
00000172   TACCR0
00000174   TACCR1
00000176   TACCR2
00000180   TBCTL
00000182   TBCCTL0
00000184   TBCCTL1
00000186   TBCCTL2
00000190   TBR
00000192   TBCCR0
00000194   TBCCR1
00000196   TBCCR2
000001b0   ADC10CTL0
000001b2   ADC10CTL1
000001b4   ADC10MEM
000001bc   ADC10SA
00000200   .bss
00000200   __bss__
000004be   pxCurrentTCB
00000560   pxCurrentCoRoutine
00000570   xLocalError
00000572   ulIdleLoops
00000576   _lock
00000578   _unlock
0000057a   _cleanup_ptr
0000057c   _dtors_ptr
00000582   usCriticalNesting
00000584   __end__
00000584   end
000005b0   _stack
00000600   __STACK_END
000010f8   CALDCO_16MHZ
000010f9   CALBC1_16MHZ
000010fa   CALDCO_12MHZ
000010fb   CALBC1_12MHZ
000010fc   CALDCO_8MHZ
000010fd   CALBC1_8MHZ
000010fe   CALDCO_1MHZ
000010ff   CALBC1_1MHZ
00008000   .text
00008000   __text__
00008000   vPortPreemptiveTickISR
0000805c   vPortCooperativeTickISR
000080b4   vPortYield
0000810e   xPortStartScheduler
0000813e   xTaskGenericCreate
00008276   xTaskResumeAll
00008346   pxPortInitialiseStack
00008406   vTaskDelayUntil
000084b4   vTaskIncrementTick
0000854e   vListInsert
00008720   vApplicationIdleHook
000087f2   vTaskSwitchContext
0000885a   vListInsertEnd
00008912   __divul
00008912   __remul
0000896a   pvPortMalloc
000089c0   vParTestToggleLED
00008a0e   vStartLEDFlashTasks
00008a58   vTaskStartScheduler
00008aa2   vListRemove
00008aea   _auto_init
00008b30   __divli
00008b30   __remli
00008b70   strncpy
00008ba8   vListInitialise
00008bda   vPortSetupTimerInterrupt
00008c0c   _c_int00
00008c0c   _c_int00_noexit
00008c32   __mpyl
00008c58   xTaskGetTickCount
00008c7c   vTickISREntry
00008cca   main
00008ce0   memset
00008d08   __mpyi
00008d1c   memcpy
00008d2e   func_epilog_7
00008d30   func_epilog_6
00008d32   func_epilog_5
00008d34   func_epilog_4
00008d36   func_epilog_3
00008d38   func_epilog_2
00008d3a   func_epilog_1
00008d3e   vListInitialiseItem
00008d4c   vParTestInitialise
00008d5a   vPortFree
00008d64   vTaskSuspendAll
00008d6a   _system_pre_init
00008d6e   C$$EXIT
00008d6e   abort
00008d72   _nop
00008d74   __cinit__
00008d74   __etext__
00008d74   cinit
00008d74   etext
0000fffe   _reset_vector
ffffffff   __binit__
ffffffff   __c_args__
ffffffff   __pinit__
ffffffff   binit
ffffffff   pinit

[178 symbols]
